; Function Attrs: mustprogress null_pointer_is_valid sspstrong uwtable
define void @_ZN9UatDialog15copyFromProfileE7QString(ptr noundef readonly align 8 captures(none) dereferenceable_or_null(120) %0, ptr noundef %1) #0 align 2 personality ptr @__gxx_personality_v0 {
  %3 = alloca ptr, align 8
  %4 = alloca %class.QByteArray, align 8
  call void @llvm.lifetime.start.p0(i64 8, ptr nonnull %3) #21
  store ptr null, ptr %3, align 8
  %5 = getelementptr inbounds nuw i8, ptr %0, i64 112
  %6 = load ptr, ptr %5, align 8
  call void @llvm.lifetime.start.p0(i64 24, ptr nonnull %4) #21
  call void @_ZN7QString13toUtf8_helperERKS_(ptr dead_on_unwind nonnull writable sret(%class.QByteArray) align 8 %4, ptr noundef align 8 dereferenceable(24) dereferenceable_or_null(24) %1)
  %7 = getelementptr inbounds nuw i8, ptr %4, i64 8
  %8 = load ptr, ptr %7, align 8
  %.not.i.i = icmp eq ptr %8, null
  %spec.select.i.i = select i1 %.not.i.i, ptr @_ZN10QByteArray6_emptyE, ptr %8
  %9 = invoke zeroext i1 @uat_load(ptr noundef %6, ptr noundef nonnull %spec.select.i.i, ptr noundef nonnull %3)
          to label %10 unwind label %20

10:                                               ; preds = %2
  %11 = load ptr, ptr %4, align 8
  %.not.i.i.i = icmp eq ptr %11, null
  br i1 %.not.i.i.i, label %_ZN10QByteArrayD2Ev.exit, label %_ZN17QArrayDataPointerIcE5derefEv.exit.i.i

_ZN17QArrayDataPointerIcE5derefEv.exit.i.i:       ; preds = %10
  %12 = atomicrmw sub ptr %11, i32 1 seq_cst, align 4
  %.not.i.i2 = icmp eq i32 %12, 1
  br i1 %.not.i.i2, label %13, label %_ZN10QByteArrayD2Ev.exit

13:                                               ; preds = %_ZN17QArrayDataPointerIcE5derefEv.exit.i.i
  %14 = load ptr, ptr %4, align 8
  call void @_ZN10QArrayData10deallocateEPS_xx(ptr noundef %14, i64 noundef 1, i64 noundef 8) #21
  br label %_ZN10QByteArrayD2Ev.exit

_ZN10QByteArrayD2Ev.exit:                         ; preds = %10, %_ZN17QArrayDataPointerIcE5derefEv.exit.i.i, %13
  call void @llvm.lifetime.end.p0(i64 24, ptr nonnull %4) #21
  %15 = load ptr, ptr %5, align 8
  br i1 %9, label %16, label %26

16:                                               ; preds = %_ZN10QByteArrayD2Ev.exit
  %17 = getelementptr inbounds nuw i8, ptr %15, i64 152
  store i8 1, ptr %17, align 8
  %18 = getelementptr inbounds nuw i8, ptr %0, i64 80
  %19 = load ptr, ptr %18, align 8
  call void @_ZN8UatModel9reloadUatEv(ptr noundef align 8 dereferenceable_or_null(80) %19)
  br label %30

20:                                               ; preds = %2
  %21 = landingpad { ptr, i32 }
          cleanup
  %22 = load ptr, ptr %4, align 8
  %.not.i.i.i3 = icmp eq ptr %22, null
  br i1 %.not.i.i.i3, label %_ZN10QByteArrayD2Ev.exit6, label %_ZN17QArrayDataPointerIcE5derefEv.exit.i.i4

_ZN17QArrayDataPointerIcE5derefEv.exit.i.i4:      ; preds = %20
  %23 = atomicrmw sub ptr %22, i32 1 seq_cst, align 4
  %.not.i.i5 = icmp eq i32 %23, 1
  br i1 %.not.i.i5, label %24, label %_ZN10QByteArrayD2Ev.exit6

24:                                               ; preds = %_ZN17QArrayDataPointerIcE5derefEv.exit.i.i4
  %25 = load ptr, ptr %4, align 8
  call void @_ZN10QArrayData10deallocateEPS_xx(ptr noundef %25, i64 noundef 1, i64 noundef 8) #21
  br label %_ZN10QByteArrayD2Ev.exit6

_ZN10QByteArrayD2Ev.exit6:                        ; preds = %20, %_ZN17QArrayDataPointerIcE5derefEv.exit.i.i4, %24
  call void @llvm.lifetime.end.p0(i64 24, ptr nonnull %4) #21
  call void @llvm.lifetime.end.p0(i64 8, ptr nonnull %3) #21
  resume { ptr, i32 } %21

26:                                               ; preds = %_ZN10QByteArrayD2Ev.exit
  %27 = load ptr, ptr %15, align 8
  %28 = load ptr, ptr %3, align 8
  call void (ptr, ...) @report_failure(ptr noundef nonnull @.str.18, ptr noundef %27, ptr noundef %28)
  %29 = load ptr, ptr %3, align 8
  call void @g_free(ptr noundef %29)
  br label %30

30:                                               ; preds = %26, %16
  call void @llvm.lifetime.end.p0(i64 8, ptr nonnull %3) #21
  ret void
}